target datalayout = "e-m:e-p270:32:32-p271:32:32-p272:64:64-i64:64-i128:128-f80:128-n8:16:32:64-S128"
target triple = "x86_64-pc-linux-gnu"

; Function Attrs: alwaysinline nounwind uwtable
define internal void @h264_loop_filter_chroma_intra_9_c(ptr noundef %0, i64 noundef %1, i64 noundef %2, i32 noundef %3, i32 noundef %4, i32 noundef %5) #7 {
  %7 = alloca ptr, align 8
  %8 = alloca i64, align 8
  %9 = alloca i64, align 8
  %10 = alloca i32, align 4
  %11 = alloca i32, align 4
  %12 = alloca i32, align 4
  %13 = alloca ptr, align 8
  %14 = alloca i32, align 4
  %15 = alloca i32, align 4
  %16 = alloca i32, align 4
  %17 = alloca i32, align 4
  %18 = alloca i32, align 4
  store ptr %0, ptr %7, align 8, !tbaa !39
  store i64 %1, ptr %8, align 8, !tbaa !53
  store i64 %2, ptr %9, align 8, !tbaa !53
  store i32 %3, ptr %10, align 4, !tbaa !9
  store i32 %4, ptr %11, align 4, !tbaa !9
  store i32 %5, ptr %12, align 4, !tbaa !9
  call void @llvm.lifetime.start.p0(i64 8, ptr %13) #9
  %19 = load ptr, ptr %7, align 8, !tbaa !39
  store ptr %19, ptr %13, align 8, !tbaa !41
  call void @llvm.lifetime.start.p0(i64 4, ptr %14) #9
  %20 = load i64, ptr %8, align 8, !tbaa !53
  %21 = ashr i64 %20, 1
  store i64 %21, ptr %8, align 8, !tbaa !53
  %22 = load i64, ptr %9, align 8, !tbaa !53
  %23 = ashr i64 %22, 1
  store i64 %23, ptr %9, align 8, !tbaa !53
  %24 = load i32, ptr %11, align 4, !tbaa !9
  %25 = shl i32 %24, 1
  store i32 %25, ptr %11, align 4, !tbaa !9
  %26 = load i32, ptr %12, align 4, !tbaa !9
  %27 = shl i32 %26, 1
  store i32 %27, ptr %12, align 4, !tbaa !9
  store i32 0, ptr %14, align 4, !tbaa !9
  br label %28

28:                                               ; preds = %138, %6
  %29 = load i32, ptr %14, align 4, !tbaa !9
  %30 = load i32, ptr %10, align 4, !tbaa !9
  %31 = mul nsw i32 4, %30
  %32 = icmp slt i32 %29, %31
  br i1 %32, label %33, label %141

33:                                               ; preds = %28
  call void @llvm.lifetime.start.p0(i64 4, ptr %15) #9
  %34 = load ptr, ptr %13, align 8, !tbaa !41
  %35 = load i64, ptr %8, align 8, !tbaa !53
  %36 = mul nsw i64 -1, %35
  %37 = getelementptr inbounds i16, ptr %34, i64 %36
  %38 = load i16, ptr %37, align 2, !tbaa !45
  %39 = zext i16 %38 to i32
  store i32 %39, ptr %15, align 4, !tbaa !9
  call void @llvm.lifetime.start.p0(i64 4, ptr %16) #9
  %40 = load ptr, ptr %13, align 8, !tbaa !41
  %41 = load i64, ptr %8, align 8, !tbaa !53
  %42 = mul nsw i64 -2, %41
  %43 = getelementptr inbounds i16, ptr %40, i64 %42
  %44 = load i16, ptr %43, align 2, !tbaa !45
  %45 = zext i16 %44 to i32
  store i32 %45, ptr %16, align 4, !tbaa !9
  call void @llvm.lifetime.start.p0(i64 4, ptr %17) #9
  %46 = load ptr, ptr %13, align 8, !tbaa !41
  %47 = getelementptr inbounds i16, ptr %46, i64 0
  %48 = load i16, ptr %47, align 2, !tbaa !45
  %49 = zext i16 %48 to i32
  store i32 %49, ptr %17, align 4, !tbaa !9
  call void @llvm.lifetime.start.p0(i64 4, ptr %18) #9
  %50 = load ptr, ptr %13, align 8, !tbaa !41
  %51 = load i64, ptr %8, align 8, !tbaa !53
  %52 = mul nsw i64 1, %51
  %53 = getelementptr inbounds i16, ptr %50, i64 %52
  %54 = load i16, ptr %53, align 2, !tbaa !45
  %55 = zext i16 %54 to i32
  store i32 %55, ptr %18, align 4, !tbaa !9
  %56 = load i32, ptr %15, align 4, !tbaa !9
  %57 = load i32, ptr %17, align 4, !tbaa !9
  %58 = sub nsw i32 %56, %57
  %59 = icmp sge i32 %58, 0
  br i1 %59, label %60, label %64

60:                                               ; preds = %33
  %61 = load i32, ptr %15, align 4, !tbaa !9
  %62 = load i32, ptr %17, align 4, !tbaa !9
  %63 = sub nsw i32 %61, %62
  br label %69

64:                                               ; preds = %33
  %65 = load i32, ptr %15, align 4, !tbaa !9
  %66 = load i32, ptr %17, align 4, !tbaa !9
  %67 = sub nsw i32 %65, %66
  %68 = sub nsw i32 0, %67
  br label %69

69:                                               ; preds = %64, %60
  %70 = phi i32 [ %63, %60 ], [ %68, %64 ]
  %71 = load i32, ptr %11, align 4, !tbaa !9
  %72 = icmp slt i32 %70, %71
  br i1 %72, label %73, label %134

73:                                               ; preds = %69
  %74 = load i32, ptr %16, align 4, !tbaa !9
  %75 = load i32, ptr %15, align 4, !tbaa !9
  %76 = sub nsw i32 %74, %75
  %77 = icmp sge i32 %76, 0
  br i1 %77, label %78, label %82

78:                                               ; preds = %73
  %79 = load i32, ptr %16, align 4, !tbaa !9
  %80 = load i32, ptr %15, align 4, !tbaa !9
  %81 = sub nsw i32 %79, %80
  br label %87

82:                                               ; preds = %73
  %83 = load i32, ptr %16, align 4, !tbaa !9
  %84 = load i32, ptr %15, align 4, !tbaa !9
  %85 = sub nsw i32 %83, %84
  %86 = sub nsw i32 0, %85
  br label %87

87:                                               ; preds = %82, %78
  %88 = phi i32 [ %81, %78 ], [ %86, %82 ]
  %89 = load i32, ptr %12, align 4, !tbaa !9
  %90 = icmp slt i32 %88, %89
  br i1 %90, label %91, label %134

91:                                               ; preds = %87
  %92 = load i32, ptr %18, align 4, !tbaa !9
  %93 = load i32, ptr %17, align 4, !tbaa !9
  %94 = sub nsw i32 %92, %93
  %95 = icmp sge i32 %94, 0
  br i1 %95, label %96, label %100

96:                                               ; preds = %91
  %97 = load i32, ptr %18, align 4, !tbaa !9
  %98 = load i32, ptr %17, align 4, !tbaa !9
  %99 = sub nsw i32 %97, %98
  br label %105

100:                                              ; preds = %91
  %101 = load i32, ptr %18, align 4, !tbaa !9
  %102 = load i32, ptr %17, align 4, !tbaa !9
  %103 = sub nsw i32 %101, %102
  %104 = sub nsw i32 0, %103
  br label %105

105:                                              ; preds = %100, %96
  %106 = phi i32 [ %99, %96 ], [ %104, %100 ]
  %107 = load i32, ptr %12, align 4, !tbaa !9
  %108 = icmp slt i32 %106, %107
  br i1 %108, label %109, label %134

109:                                              ; preds = %105
  %110 = load i32, ptr %16, align 4, !tbaa !9
  %111 = mul nsw i32 2, %110
  %112 = load i32, ptr %15, align 4, !tbaa !9
  %113 = add nsw i32 %111, %112
  %114 = load i32, ptr %18, align 4, !tbaa !9
  %115 = add nsw i32 %113, %114
  %116 = add nsw i32 %115, 2
  %117 = ashr i32 %116, 2
  %118 = trunc i32 %117 to i16
  %119 = load ptr, ptr %13, align 8, !tbaa !41
  %120 = load i64, ptr %8, align 8, !tbaa !53
  %121 = sub nsw i64 0, %120
  %122 = getelementptr inbounds i16, ptr %119, i64 %121
  store i16 %118, ptr %122, align 2, !tbaa !45
  %123 = load i32, ptr %18, align 4, !tbaa !9
  %124 = mul nsw i32 2, %123
  %125 = load i32, ptr %17, align 4, !tbaa !9
  %126 = add nsw i32 %124, %125
  %127 = load i32, ptr %16, align 4, !tbaa !9
  %128 = add nsw i32 %126, %127
  %129 = add nsw i32 %128, 2
  %130 = ashr i32 %129, 2
  %131 = trunc i32 %130 to i16
  %132 = load ptr, ptr %13, align 8, !tbaa !41
  %133 = getelementptr inbounds i16, ptr %132, i64 0
  store i16 %131, ptr %133, align 2, !tbaa !45
  br label %134

134:                                              ; preds = %109, %105, %87, %69
  %135 = load i64, ptr %9, align 8, !tbaa !53
  %136 = load ptr, ptr %13, align 8, !tbaa !41
  %137 = getelementptr inbounds i16, ptr %136, i64 %135
  store ptr %137, ptr %13, align 8, !tbaa !41
  call void @llvm.lifetime.end.p0(i64 4, ptr %18) #9
  call void @llvm.lifetime.end.p0(i64 4, ptr %17) #9
  call void @llvm.lifetime.end.p0(i64 4, ptr %16) #9
  call void @llvm.lifetime.end.p0(i64 4, ptr %15) #9
  br label %138

138:                                              ; preds = %134
  %139 = load i32, ptr %14, align 4, !tbaa !9
  %140 = add nsw i32 %139, 1
  store i32 %140, ptr %14, align 4, !tbaa !9
  br label %28, !llvm.loop !100

141:                                              ; preds = %28
  call void @llvm.lifetime.end.p0(i64 4, ptr %14) #9
  call void @llvm.lifetime.end.p0(i64 8, ptr %13) #9
  ret void
}

; Function Attrs: nounwind uwtable
define internal void @h264_h_loop_filter_chroma422_mbaff_intra_9_c(ptr noundef %0, i64 noundef %1, i32 noundef %2, i32 noundef %3) #1 {
  %5 = alloca ptr, align 8
  %6 = alloca i64, align 8
  %7 = alloca i32, align 4
  %8 = alloca i32, align 4
  store ptr %0, ptr %5, align 8, !tbaa !39
  store i64 %1, ptr %6, align 8, !tbaa !53
  store i32 %2, ptr %7, align 4, !tbaa !9
  store i32 %3, ptr %8, align 4, !tbaa !9
  %9 = load ptr, ptr %5, align 8, !tbaa !39
  %10 = load i64, ptr %6, align 8, !tbaa !53
  %11 = load i32, ptr %7, align 4, !tbaa !9
  %12 = load i32, ptr %8, align 4, !tbaa !9
  call void @h264_loop_filter_chroma_intra_9_c(ptr noundef %9, i64 noundef 2, i64 noundef %10, i32 noundef 2, i32 noundef %11, i32 noundef %12)
  ret void
}